                                      1 ;--------------------------------------------------------
                                      2 ; File Created by SDCC : free open source ANSI-C Compiler
                                      3 ; Version 4.2.0 #13081 (Linux)
                                      4 ;--------------------------------------------------------
                                      5 	.module main
                                      6 	.optsdcc -mstm8
                                      7 	
                                      8 ;--------------------------------------------------------
                                      9 ; Public variables in this module
                                     10 ;--------------------------------------------------------
                                     11 	.globl _main
                                     12 	.globl _EXTI_PORTB_IRQHandler
                                     13 	.globl _delay_ms
                                     14 ;--------------------------------------------------------
                                     15 ; ram data
                                     16 ;--------------------------------------------------------
                                     17 	.area DATA
                                     18 ;--------------------------------------------------------
                                     19 ; ram data
                                     20 ;--------------------------------------------------------
                                     21 	.area INITIALIZED
                                     22 ;--------------------------------------------------------
                                     23 ; Stack segment in internal ram
                                     24 ;--------------------------------------------------------
                                     25 	.area	SSEG
      000000                         26 __start__stack:
      000000                         27 	.ds	1
                                     28 
                                     29 ;--------------------------------------------------------
                                     30 ; absolute external ram data
                                     31 ;--------------------------------------------------------
                                     32 	.area DABS (ABS)
                                     33 
                                     34 ; default segment ordering for linker
                                     35 	.area HOME
                                     36 	.area GSINIT
                                     37 	.area GSFINAL
                                     38 	.area CONST
                                     39 	.area INITIALIZER
                                     40 	.area CODE
                                     41 
                                     42 ;--------------------------------------------------------
                                     43 ; interrupt vector
                                     44 ;--------------------------------------------------------
                                     45 	.area HOME
      000000                         46 __interrupt_vect:
      000000 82v00u00u00             47 	int s_GSINIT ; reset
      000004 82 00 00 00             48 	int 0x000000 ; trap
      000008 82 00 00 00             49 	int 0x000000 ; int0
      00000C 82 00 00 00             50 	int 0x000000 ; int1
      000010 82 00 00 00             51 	int 0x000000 ; int2
      000014 82 00 00 00             52 	int 0x000000 ; int3
      000018 82v00u00u24             53 	int _EXTI_PORTB_IRQHandler ; int4
                                     54 ;--------------------------------------------------------
                                     55 ; global & static initialisations
                                     56 ;--------------------------------------------------------
                                     57 	.area HOME
                                     58 	.area GSINIT
                                     59 	.area GSFINAL
                                     60 	.area GSINIT
      000000                         61 __sdcc_init_data:
                                     62 ; stm8_genXINIT() start
      000000 AEr00r00         [ 2]   63 	ldw x, #l_DATA
      000003 27 07            [ 1]   64 	jreq	00002$
      000005                         65 00001$:
      000005 72 4FuFFuFF      [ 1]   66 	clr (s_DATA - 1, x)
      000009 5A               [ 2]   67 	decw x
      00000A 26 F9            [ 1]   68 	jrne	00001$
      00000C                         69 00002$:
      00000C AEr00r00         [ 2]   70 	ldw	x, #l_INITIALIZER
      00000F 27 09            [ 1]   71 	jreq	00004$
      000011                         72 00003$:
      000011 D6uFFuFF         [ 1]   73 	ld	a, (s_INITIALIZER - 1, x)
      000014 D7uFFuFF         [ 1]   74 	ld	(s_INITIALIZED - 1, x), a
      000017 5A               [ 2]   75 	decw	x
      000018 26 F7            [ 1]   76 	jrne	00003$
      00001A                         77 00004$:
                                     78 ; stm8_genXINIT() end
                                     79 	.area GSFINAL
      000000 CCr00r1C         [ 2]   80 	jp	__sdcc_program_startup
                                     81 ;--------------------------------------------------------
                                     82 ; Home
                                     83 ;--------------------------------------------------------
                                     84 	.area HOME
                                     85 	.area HOME
      00001C                         86 __sdcc_program_startup:
      00001C CCr00r31         [ 2]   87 	jp	_main
                                     88 ;	return from main will return to caller
                                     89 ;--------------------------------------------------------
                                     90 ; code
                                     91 ;--------------------------------------------------------
                                     92 	.area CODE
                                     93 ;	src/main.c: 4: void delay_ms(uint16_t ms)
                                     94 ;	-----------------------------------------
                                     95 ;	 function delay_ms
                                     96 ;	-----------------------------------------
      000000                         97 _delay_ms:
      000000 52 04            [ 2]   98 	sub	sp, #4
      000002 1F 01            [ 2]   99 	ldw	(0x01, sp), x
                                    100 ;	src/main.c: 6: for (uint16_t i = 0; i < ms; i++)
      000004 5F               [ 1]  101 	clrw	x
      000005 1F 03            [ 2]  102 	ldw	(0x03, sp), x
      000007                        103 00107$:
      000007 1E 03            [ 2]  104 	ldw	x, (0x03, sp)
      000009 13 01            [ 2]  105 	cpw	x, (0x01, sp)
      00000B 24 14            [ 1]  106 	jrnc	00109$
                                    107 ;	src/main.c: 8: for (uint16_t j = 0; j < 1600; j++)
      00000D 5F               [ 1]  108 	clrw	x
      00000E                        109 00104$:
      00000E 90 93            [ 1]  110 	ldw	y, x
      000010 90 A3 06 40      [ 2]  111 	cpw	y, #0x0640
      000014 24 04            [ 1]  112 	jrnc	00108$
                                    113 ;	src/main.c: 10: __asm__("nop"); // No operation - just wastes a clock cycle
      000016 9D               [ 1]  114 	nop
                                    115 ;	src/main.c: 8: for (uint16_t j = 0; j < 1600; j++)
      000017 5C               [ 1]  116 	incw	x
      000018 20 F4            [ 2]  117 	jra	00104$
      00001A                        118 00108$:
                                    119 ;	src/main.c: 6: for (uint16_t i = 0; i < ms; i++)
      00001A 1E 03            [ 2]  120 	ldw	x, (0x03, sp)
      00001C 5C               [ 1]  121 	incw	x
      00001D 1F 03            [ 2]  122 	ldw	(0x03, sp), x
      00001F 20 E6            [ 2]  123 	jra	00107$
      000021                        124 00109$:
                                    125 ;	src/main.c: 13: }
      000021 5B 04            [ 2]  126 	addw	sp, #4
      000023 81               [ 4]  127 	ret
                                    128 ;	src/main.c: 14: void EXTI_PORTB_IRQHandler(void) __interrupt(4)
                                    129 ;	-----------------------------------------
                                    130 ;	 function EXTI_PORTB_IRQHandler
                                    131 ;	-----------------------------------------
      000024                        132 _EXTI_PORTB_IRQHandler:
      000024 4F               [ 1]  133 	clr	a
      000025 62               [ 2]  134 	div	x, a
                                    135 ;	src/main.c: 17: GPIOC->ODR ^= (1 << 5); 
      000026 90 1A 50 0A      [ 1]  136 	bcpl	0x500a, #5
                                    137 ;	src/main.c: 18: delay_ms(50);
      00002A AE 00 32         [ 2]  138 	ldw	x, #0x0032
      00002D CDr00r00         [ 4]  139 	call	_delay_ms
                                    140 ;	src/main.c: 19: }
      000030 80               [11]  141 	iret
                                    142 ;	src/main.c: 21: void main(void)
                                    143 ;	-----------------------------------------
                                    144 ;	 function main
                                    145 ;	-----------------------------------------
      000031                        146 _main:
                                    147 ;	src/main.c: 23: __asm__("sim");
      000031 9B               [ 1]  148 	sim
                                    149 ;	src/main.c: 26: GPIOC->DDR |= (1 << 5);   // Set PC5 as output
      000032 72 1A 50 0C      [ 1]  150 	bset	0x500c, #5
                                    151 ;	src/main.c: 27: GPIOC->CR1 |= (1 << 5);   // Set PC5 as push-pull
      000036 72 1A 50 0D      [ 1]  152 	bset	0x500d, #5
                                    153 ;	src/main.c: 28: GPIOC->ODR &= ~(1 << 5);  // Start with the LED off
      00003A 72 1B 50 0A      [ 1]  154 	bres	0x500a, #5
                                    155 ;	src/main.c: 31: GPIOB->DDR &= ~(1 << 4);  // Set PB4 as input
      00003E 72 19 50 07      [ 1]  156 	bres	0x5007, #4
                                    157 ;	src/main.c: 32: GPIOB->CR1 |= (1 << 4);   // Enable the internal pull-up resistor
      000042 72 18 50 08      [ 1]  158 	bset	0x5008, #4
                                    159 ;	src/main.c: 33: GPIOB->CR2 |= (1 << 4);   // **FIX:** Enable external interrupt for pin PB4
      000046 C6 50 09         [ 1]  160 	ld	a, 0x5009
      000049 AA 10            [ 1]  161 	or	a, #0x10
      00004B C7 50 09         [ 1]  162 	ld	0x5009, a
                                    163 ;	src/main.c: 35: EXTI->CR1 = (2 << 2); 
      00004E 35 08 50 A0      [ 1]  164 	mov	0x50a0+0, #0x08
                                    165 ;	src/main.c: 36: EXTI->CR2 = 0;
      000052 35 00 50 A1      [ 1]  166 	mov	0x50a1+0, #0x00
                                    167 ;	src/main.c: 38: __asm__("rim"); 
      000056 9A               [ 1]  168 	rim
                                    169 ;	src/main.c: 41: while (1)
      000057                        170 00102$:
                                    171 ;	src/main.c: 45: __asm__("wfi");
      000057 8F               [10]  172 	wfi
      000058 20 FD            [ 2]  173 	jra	00102$
                                    174 ;	src/main.c: 47: }
      00005A 81               [ 4]  175 	ret
                                    176 	.area CODE
                                    177 	.area CONST
                                    178 	.area INITIALIZER
                                    179 	.area CABS (ABS)
